; Function Attrs: nounwind uwtable
define hidden zeroext range(i8 0, 2) i8 @init_method(ptr noundef %0, ptr noundef %1) local_unnamed_addr #0 {
  %3 = load ptr, ptr @this_class, align 8
  %4 = icmp eq ptr %3, null
  br i1 %4, label %5, label %18

5:                                                ; preds = %2
  %6 = load ptr, ptr %0, align 8
  %7 = getelementptr inbounds i8, ptr %6, i64 168
  %8 = load ptr, ptr %7, align 8
  %9 = getelementptr inbounds i8, ptr %6, i64 248
  %10 = load ptr, ptr %9, align 8
  %11 = tail call ptr %10(ptr noundef nonnull %0, ptr noundef %1) #6
  %12 = tail call ptr %8(ptr noundef nonnull %0, ptr noundef %11) #6
  store ptr %12, ptr @this_class, align 8
  %13 = load ptr, ptr %0, align 8
  %14 = getelementptr inbounds i8, ptr %13, i64 264
  %15 = load ptr, ptr %14, align 8
  %16 = tail call ptr %15(ptr noundef nonnull %0, ptr noundef %12, ptr noundef nonnull @.str, ptr noundef nonnull @.str.1) #6
  store ptr %16, ptr @icon_upcall_method, align 8
  %17 = icmp eq ptr %16, null
  br i1 %17, label %19, label %18

18:                                               ; preds = %5, %2
  br label %19

19:                                               ; preds = %5, %18
  %.0 = phi i8 [ 1, %18 ], [ 0, %5 ]
  ret i8 %.0
}